target datalayout = "e-m:e-p270:32:32-p271:32:32-p272:64:64-i64:64-i128:128-f80:128-n8:16:32:64-S128"
target triple = "x86_64-pc-linux-gnu"

%"struct.llvm::Align" = type { i8 }
%"class.llvm::MachineFrameInfo" = type { %"struct.llvm::Align", i8, i8, %"class.std::vector", i32, i8, i8, i8, i8, i8, i64, i64, %"struct.llvm::Align", i8, i8, i32, i32, i64, i32, %"class.std::vector.0", i8, %"class.llvm::SmallVector", i64, %"struct.llvm::Align", i8, i8, i8, i8, i8, i8, ptr, ptr, i64 }
%"class.std::vector" = type { %"struct.std::_Vector_base" }
%"struct.std::_Vector_base" = type { %"struct.std::_Vector_base<llvm::MachineFrameInfo::StackObject, std::allocator<llvm::MachineFrameInfo::StackObject>>::_Vector_impl" }
%"struct.std::_Vector_base<llvm::MachineFrameInfo::StackObject, std::allocator<llvm::MachineFrameInfo::StackObject>>::_Vector_impl" = type { %"struct.std::_Vector_base<llvm::MachineFrameInfo::StackObject, std::allocator<llvm::MachineFrameInfo::StackObject>>::_Vector_impl_data" }
%"struct.std::_Vector_base<llvm::MachineFrameInfo::StackObject, std::allocator<llvm::MachineFrameInfo::StackObject>>::_Vector_impl_data" = type { ptr, ptr, ptr }
%"class.std::vector.0" = type { %"struct.std::_Vector_base.1" }
%"struct.std::_Vector_base.1" = type { %"struct.std::_Vector_base<llvm::CalleeSavedInfo, std::allocator<llvm::CalleeSavedInfo>>::_Vector_impl" }
%"struct.std::_Vector_base<llvm::CalleeSavedInfo, std::allocator<llvm::CalleeSavedInfo>>::_Vector_impl" = type { %"struct.std::_Vector_base<llvm::CalleeSavedInfo, std::allocator<llvm::CalleeSavedInfo>>::_Vector_impl_data" }
%"struct.std::_Vector_base<llvm::CalleeSavedInfo, std::allocator<llvm::CalleeSavedInfo>>::_Vector_impl_data" = type { ptr, ptr, ptr }
%"class.llvm::SmallVector" = type { %"class.llvm::SmallVectorImpl", %"struct.llvm::SmallVectorStorage" }
%"class.llvm::SmallVectorImpl" = type { %"class.llvm::SmallVectorTemplateBase" }
%"class.llvm::SmallVectorTemplateBase" = type { %"class.llvm::SmallVectorTemplateCommon" }
%"class.llvm::SmallVectorTemplateCommon" = type { %"class.llvm::SmallVectorBase" }
%"class.llvm::SmallVectorBase" = type { ptr, i32, i32 }
%"struct.llvm::SmallVectorStorage" = type { [512 x i8] }
%"struct.llvm::MachineFrameInfo::StackObject" = type <{ i64, i64, %"struct.llvm::Align", i8, i8, i8, i8, [3 x i8], ptr, i8, i8, i8, i8, i8, [3 x i8] }>
%"class.__gnu_cxx::__normal_iterator.5" = type { ptr }
%"class.__gnu_cxx::__normal_iterator" = type { ptr }

; Function Attrs: mustprogress nounwind uwtable
define linkonce_odr hidden noundef i32 @_ZN4llvm6detail19LeadingZerosCounterImLm8EE5countEm(i64 noundef %0) #0 comdat align 2 {
  %2 = alloca i32, align 4
  %3 = alloca i64, align 8
  store i64 %0, ptr %3, align 8
  %4 = load i64, ptr %3, align 8
  %5 = icmp eq i64 %4, 0
  br i1 %5, label %6, label %7

6:                                                ; preds = %1
  store i32 64, ptr %2, align 4
  br label %11

7:                                                ; preds = %1
  %8 = load i64, ptr %3, align 8
  %9 = call i64 @llvm.ctlz.i64(i64 %8, i1 true)
  %10 = trunc i64 %9 to i32
  store i32 %10, ptr %2, align 4
  br label %11

11:                                               ; preds = %7, %6
  %12 = load i32, ptr %2, align 4
  ret i32 %12
}

; Function Attrs: mustprogress nounwind uwtable
define linkonce_odr noundef i32 @_ZN4llvm11countl_zeroImEEiT_(i64 noundef %0) #0 comdat {
  %2 = alloca i64, align 8
  store i64 %0, ptr %2, align 8
  %3 = load i64, ptr %2, align 8
  %4 = call noundef i32 @_ZN4llvm6detail19LeadingZerosCounterImLm8EE5countEm(i64 noundef %3)
  ret i32 %4
}

; Function Attrs: mustprogress nounwind uwtable
define linkonce_odr hidden noundef nonnull align 8 dereferenceable(8) ptr @_ZNK9__gnu_cxx17__normal_iteratorIPN4llvm16MachineFrameInfo11StackObjectESt6vectorIS3_SaIS3_EEE4baseEv(ptr noundef nonnull align 8 dereferenceable(8) %0) #0 comdat align 2 {
  %2 = alloca ptr, align 8
  store ptr %0, ptr %2, align 8
  %3 = load ptr, ptr %2, align 8
  %4 = getelementptr inbounds nuw %"class.__gnu_cxx::__normal_iterator", ptr %3, i32 0, i32 0
  ret ptr %4
}

; Function Attrs: mustprogress nounwind uwtable
define linkonce_odr hidden void @_ZN9__gnu_cxx17__normal_iteratorIPN4llvm16MachineFrameInfo11StackObjectESt6vectorIS3_SaIS3_EEEC2ERKS4_(ptr noundef nonnull align 8 dereferenceable(8) %0, ptr noundef nonnull align 8 dereferenceable(8) %1) unnamed_addr #0 comdat align 2 {
  %3 = alloca ptr, align 8
  %4 = alloca ptr, align 8
  store ptr %0, ptr %3, align 8
  store ptr %1, ptr %4, align 8
  %5 = load ptr, ptr %3, align 8
  %6 = getelementptr inbounds nuw %"class.__gnu_cxx::__normal_iterator", ptr %5, i32 0, i32 0
  %7 = load ptr, ptr %4, align 8
  %8 = load ptr, ptr %7, align 8
  store ptr %8, ptr %6, align 8
  ret void
}

; Function Attrs: mustprogress nounwind uwtable
define linkonce_odr hidden noundef zeroext i1 @_ZN4llvmleENS_5AlignES0_(i8 %0, i8 %1) #0 comdat {
  %3 = alloca %"struct.llvm::Align", align 1
  %4 = alloca %"struct.llvm::Align", align 1
  %5 = getelementptr inbounds nuw %"struct.llvm::Align", ptr %3, i32 0, i32 0
  store i8 %0, ptr %5, align 1
  %6 = getelementptr inbounds nuw %"struct.llvm::Align", ptr %4, i32 0, i32 0
  store i8 %1, ptr %6, align 1
  %7 = getelementptr inbounds nuw %"struct.llvm::Align", ptr %3, i32 0, i32 0
  %8 = load i8, ptr %7, align 1
  %9 = zext i8 %8 to i32
  %10 = getelementptr inbounds nuw %"struct.llvm::Align", ptr %4, i32 0, i32 0
  %11 = load i8, ptr %10, align 1
  %12 = zext i8 %11 to i32
  %13 = icmp sle i32 %9, %12
  ret i1 %13
}

; Function Attrs: mustprogress nounwind uwtable
define linkonce_odr hidden noundef i64 @_ZN4llvm8MinAlignEmm(i64 noundef %0, i64 noundef %1) #0 comdat {
  %3 = alloca i64, align 8
  %4 = alloca i64, align 8
  store i64 %0, ptr %3, align 8
  store i64 %1, ptr %4, align 8
  %5 = load i64, ptr %3, align 8
  %6 = load i64, ptr %4, align 8
  %7 = or i64 %5, %6
  %8 = load i64, ptr %3, align 8
  %9 = load i64, ptr %4, align 8
  %10 = or i64 %8, %9
  %11 = xor i64 %10, -1
  %12 = add i64 1, %11
  %13 = and i64 %7, %12
  ret i64 %13
}

; Function Attrs: mustprogress nounwind uwtable
define linkonce_odr hidden noundef i64 @_ZNK4llvm5Align5valueEv(ptr noundef nonnull align 1 dereferenceable(1) %0) #0 comdat align 2 {
  %2 = alloca ptr, align 8
  store ptr %0, ptr %2, align 8
  %3 = load ptr, ptr %2, align 8
  %4 = getelementptr inbounds nuw %"struct.llvm::Align", ptr %3, i32 0, i32 0
  %5 = load i8, ptr %4, align 1
  %6 = zext i8 %5 to i32
  %7 = zext i32 %6 to i64
  %8 = shl i64 1, %7
  ret i64 %8
}

; Function Attrs: mustprogress nounwind uwtable
define linkonce_odr hidden noundef i32 @_ZN4llvm7Log2_64Em(i64 noundef %0) #0 comdat {
  %2 = alloca i64, align 8
  store i64 %0, ptr %2, align 8
  %3 = load i64, ptr %2, align 8
  %4 = call noundef i32 @_ZN4llvm11countl_zeroImEEiT_(i64 noundef %3)
  %5 = sub nsw i32 63, %4
  ret i32 %5
}

; Function Attrs: mustprogress nounwind uwtable
define linkonce_odr hidden ptr @_ZNSt6vectorIN4llvm16MachineFrameInfo11StackObjectESaIS2_EE6insertEN9__gnu_cxx17__normal_iteratorIPKS2_S4_EEOS2_(ptr noundef nonnull align 8 dereferenceable(24) %0, ptr %1, ptr noundef nonnull align 8 dereferenceable(37) %2) #0 comdat align 2 {
  %4 = alloca %"class.__gnu_cxx::__normal_iterator", align 8
  %5 = alloca %"class.__gnu_cxx::__normal_iterator.5", align 8
  %6 = alloca ptr, align 8
  %7 = alloca ptr, align 8
  %8 = alloca %"class.__gnu_cxx::__normal_iterator.5", align 8
  %9 = getelementptr inbounds nuw %"class.__gnu_cxx::__normal_iterator.5", ptr %5, i32 0, i32 0
  store ptr %1, ptr %9, align 8
  store ptr %0, ptr %6, align 8
  store ptr %2, ptr %7, align 8
  %10 = load ptr, ptr %6, align 8
  call void @llvm.memcpy.p0.p0.i64(ptr align 8 %8, ptr align 8 %5, i64 8, i1 false)
  %11 = load ptr, ptr %7, align 8
  %12 = getelementptr inbounds nuw %"class.__gnu_cxx::__normal_iterator.5", ptr %8, i32 0, i32 0
  %13 = load ptr, ptr %12, align 8
  %14 = call ptr @_ZNSt6vectorIN4llvm16MachineFrameInfo11StackObjectESaIS2_EE14_M_insert_rvalEN9__gnu_cxx17__normal_iteratorIPKS2_S4_EEOS2_(ptr noundef nonnull align 8 dereferenceable(24) %10, ptr %13, ptr noundef nonnull align 8 dereferenceable(37) %11)
  %15 = getelementptr inbounds nuw %"class.__gnu_cxx::__normal_iterator", ptr %4, i32 0, i32 0
  store ptr %14, ptr %15, align 8
  %16 = getelementptr inbounds nuw %"class.__gnu_cxx::__normal_iterator", ptr %4, i32 0, i32 0
  %17 = load ptr, ptr %16, align 8
  ret ptr %17
}

; Function Attrs: mustprogress nounwind uwtable
define linkonce_odr hidden void @_ZN4llvm16MachineFrameInfo11StackObjectC2EmNS_5AlignElbbPKNS_10AllocaInstEbh(ptr noundef nonnull align 8 dereferenceable(37) %0, i64 noundef %1, i8 %2, i64 noundef %3, i1 noundef zeroext %4, i1 noundef zeroext %5, ptr noundef %6, i1 noundef zeroext %7, i8 noundef zeroext %8) unnamed_addr #0 comdat align 2 {
  %10 = alloca %"struct.llvm::Align", align 1
  %11 = alloca ptr, align 8
  %12 = alloca i64, align 8
  %13 = alloca i64, align 8
  %14 = alloca i8, align 1
  %15 = alloca i8, align 1
  %16 = alloca ptr, align 8
  %17 = alloca i8, align 1
  %18 = alloca i8, align 1
  %19 = getelementptr inbounds nuw %"struct.llvm::Align", ptr %10, i32 0, i32 0
  store i8 %2, ptr %19, align 1
  store ptr %0, ptr %11, align 8
  store i64 %1, ptr %12, align 8
  store i64 %3, ptr %13, align 8
  %20 = zext i1 %4 to i8
  store i8 %20, ptr %14, align 1
  %21 = zext i1 %5 to i8
  store i8 %21, ptr %15, align 1
  store ptr %6, ptr %16, align 8
  %22 = zext i1 %7 to i8
  store i8 %22, ptr %17, align 1
  store i8 %8, ptr %18, align 1
  %23 = load ptr, ptr %11, align 8
  %24 = getelementptr inbounds nuw %"struct.llvm::MachineFrameInfo::StackObject", ptr %23, i32 0, i32 0
  %25 = load i64, ptr %13, align 8
  store i64 %25, ptr %24, align 8
  %26 = getelementptr inbounds nuw %"struct.llvm::MachineFrameInfo::StackObject", ptr %23, i32 0, i32 1
  %27 = load i64, ptr %12, align 8
  store i64 %27, ptr %26, align 8
  %28 = getelementptr inbounds nuw %"struct.llvm::MachineFrameInfo::StackObject", ptr %23, i32 0, i32 2
  call void @llvm.memcpy.p0.p0.i64(ptr align 8 %28, ptr align 1 %10, i64 1, i1 false)
  %29 = getelementptr inbounds nuw %"struct.llvm::MachineFrameInfo::StackObject", ptr %23, i32 0, i32 3
  %30 = load i8, ptr %14, align 1
  %31 = trunc i8 %30 to i1
  %32 = zext i1 %31 to i8
  store i8 %32, ptr %29, align 1
  %33 = getelementptr inbounds nuw %"struct.llvm::MachineFrameInfo::StackObject", ptr %23, i32 0, i32 4
  %34 = load i8, ptr %15, align 1
  %35 = trunc i8 %34 to i1
  %36 = zext i1 %35 to i8
  store i8 %36, ptr %33, align 2
  %37 = getelementptr inbounds nuw %"struct.llvm::MachineFrameInfo::StackObject", ptr %23, i32 0, i32 5
  store i8 0, ptr %37, align 1
  %38 = getelementptr inbounds nuw %"struct.llvm::MachineFrameInfo::StackObject", ptr %23, i32 0, i32 6
  %39 = load i8, ptr %18, align 1
  store i8 %39, ptr %38, align 4
  %40 = getelementptr inbounds nuw %"struct.llvm::MachineFrameInfo::StackObject", ptr %23, i32 0, i32 8
  %41 = load ptr, ptr %16, align 8
  store ptr %41, ptr %40, align 8
  %42 = getelementptr inbounds nuw %"struct.llvm::MachineFrameInfo::StackObject", ptr %23, i32 0, i32 9
  store i8 0, ptr %42, align 8
  %43 = getelementptr inbounds nuw %"struct.llvm::MachineFrameInfo::StackObject", ptr %23, i32 0, i32 10
  %44 = load i8, ptr %17, align 1
  %45 = trunc i8 %44 to i1
  %46 = zext i1 %45 to i8
  store i8 %46, ptr %43, align 1
  %47 = getelementptr inbounds nuw %"struct.llvm::MachineFrameInfo::StackObject", ptr %23, i32 0, i32 11
  store i8 0, ptr %47, align 2
  %48 = getelementptr inbounds nuw %"struct.llvm::MachineFrameInfo::StackObject", ptr %23, i32 0, i32 12
  store i8 0, ptr %48, align 1
  %49 = getelementptr inbounds nuw %"struct.llvm::MachineFrameInfo::StackObject", ptr %23, i32 0, i32 13
  store i8 0, ptr %49, align 4
  ret void
}

; Function Attrs: mustprogress nounwind uwtable
define linkonce_odr hidden void @_ZN9__gnu_cxx17__normal_iteratorIPKN4llvm16MachineFrameInfo11StackObjectESt6vectorIS3_SaIS3_EEEC2IPS3_vEERKNS0_IT_S8_EE(ptr noundef nonnull align 8 dereferenceable(8) %0, ptr noundef nonnull align 8 dereferenceable(8) %1) unnamed_addr #0 comdat align 2 {
  %3 = alloca ptr, align 8
  %4 = alloca ptr, align 8
  store ptr %0, ptr %3, align 8
  store ptr %1, ptr %4, align 8
  %5 = load ptr, ptr %3, align 8
  %6 = getelementptr inbounds nuw %"class.__gnu_cxx::__normal_iterator.5", ptr %5, i32 0, i32 0
  %7 = load ptr, ptr %4, align 8
  %8 = call noundef nonnull align 8 dereferenceable(8) ptr @_ZNK9__gnu_cxx17__normal_iteratorIPN4llvm16MachineFrameInfo11StackObjectESt6vectorIS3_SaIS3_EEE4baseEv(ptr noundef nonnull align 8 dereferenceable(8) %7) #9
  %9 = load ptr, ptr %8, align 8
  store ptr %9, ptr %6, align 8
  ret void
}

; Function Attrs: mustprogress nounwind uwtable
define linkonce_odr hidden ptr @_ZNSt6vectorIN4llvm16MachineFrameInfo11StackObjectESaIS2_EE5beginEv(ptr noundef nonnull align 8 dereferenceable(24) %0) #0 comdat align 2 {
  %2 = alloca %"class.__gnu_cxx::__normal_iterator", align 8
  %3 = alloca ptr, align 8
  store ptr %0, ptr %3, align 8
  %4 = load ptr, ptr %3, align 8
  %5 = getelementptr inbounds nuw %"struct.std::_Vector_base", ptr %4, i32 0, i32 0
  %6 = getelementptr inbounds nuw %"struct.std::_Vector_base<llvm::MachineFrameInfo::StackObject, std::allocator<llvm::MachineFrameInfo::StackObject>>::_Vector_impl_data", ptr %5, i32 0, i32 0
  call void @_ZN9__gnu_cxx17__normal_iteratorIPN4llvm16MachineFrameInfo11StackObjectESt6vectorIS3_SaIS3_EEEC2ERKS4_(ptr noundef nonnull align 8 dereferenceable(8) %2, ptr noundef nonnull align 8 dereferenceable(8) %6) #9
  %7 = getelementptr inbounds nuw %"class.__gnu_cxx::__normal_iterator", ptr %2, i32 0, i32 0
  %8 = load ptr, ptr %7, align 8
  ret ptr %8
}

; Function Attrs: mustprogress nounwind uwtable
define internal i8 @_ZL19clampStackAlignmentbN4llvm5AlignES0_(i1 noundef zeroext %0, i8 %1, i8 %2) #0 {
  %4 = alloca %"struct.llvm::Align", align 1
  %5 = alloca %"struct.llvm::Align", align 1
  %6 = alloca %"struct.llvm::Align", align 1
  %7 = alloca i8, align 1
  %8 = alloca %"struct.llvm::Align", align 1
  %9 = alloca %"struct.llvm::Align", align 1
  %10 = getelementptr inbounds nuw %"struct.llvm::Align", ptr %5, i32 0, i32 0
  store i8 %1, ptr %10, align 1
  %11 = getelementptr inbounds nuw %"struct.llvm::Align", ptr %6, i32 0, i32 0
  store i8 %2, ptr %11, align 1
  %12 = zext i1 %0 to i8
  store i8 %12, ptr %7, align 1
  %13 = load i8, ptr %7, align 1
  %14 = trunc i8 %13 to i1
  br i1 %14, label %15, label %21

15:                                               ; preds = %3
  call void @llvm.memcpy.p0.p0.i64(ptr align 1 %8, ptr align 1 %5, i64 1, i1 false)
  call void @llvm.memcpy.p0.p0.i64(ptr align 1 %9, ptr align 1 %6, i64 1, i1 false)
  %16 = getelementptr inbounds nuw %"struct.llvm::Align", ptr %8, i32 0, i32 0
  %17 = load i8, ptr %16, align 1
  %18 = getelementptr inbounds nuw %"struct.llvm::Align", ptr %9, i32 0, i32 0
  %19 = load i8, ptr %18, align 1
  %20 = call noundef zeroext i1 @_ZN4llvmleENS_5AlignES0_(i8 %17, i8 %19)
  br i1 %20, label %21, label %22

21:                                               ; preds = %15, %3
  call void @llvm.memcpy.p0.p0.i64(ptr align 1 %4, ptr align 1 %5, i64 1, i1 false)
  br label %25

22:                                               ; preds = %15
  br label %23

23:                                               ; preds = %22
  br label %24

24:                                               ; preds = %23
  call void @llvm.memcpy.p0.p0.i64(ptr align 1 %4, ptr align 1 %6, i64 1, i1 false)
  br label %25

25:                                               ; preds = %24, %21
  %26 = getelementptr inbounds nuw %"struct.llvm::Align", ptr %4, i32 0, i32 0
  %27 = load i8, ptr %26, align 1
  ret i8 %27
}

; Function Attrs: mustprogress nounwind uwtable
define linkonce_odr hidden i8 @_ZN4llvm15commonAlignmentENS_5AlignEm(i8 %0, i64 noundef %1) #0 comdat {
  %3 = alloca %"struct.llvm::Align", align 1
  %4 = alloca %"struct.llvm::Align", align 1
  %5 = alloca i64, align 8
  %6 = getelementptr inbounds nuw %"struct.llvm::Align", ptr %4, i32 0, i32 0
  store i8 %0, ptr %6, align 1
  store i64 %1, ptr %5, align 8
  %7 = call noundef i64 @_ZNK4llvm5Align5valueEv(ptr noundef nonnull align 1 dereferenceable(1) %4)
  %8 = load i64, ptr %5, align 8
  %9 = call noundef i64 @_ZN4llvm8MinAlignEmm(i64 noundef %7, i64 noundef %8)
  call void @_ZN4llvm5AlignC2Em(ptr noundef nonnull align 1 dereferenceable(1) %3, i64 noundef %9)
  %10 = getelementptr inbounds nuw %"struct.llvm::Align", ptr %3, i32 0, i32 0
  %11 = load i8, ptr %10, align 1
  ret i8 %11
}

; Function Attrs: mustprogress nounwind uwtable
define linkonce_odr hidden void @_ZN4llvm5AlignC2Em(ptr noundef nonnull align 1 dereferenceable(1) %0, i64 noundef %1) unnamed_addr #0 comdat align 2 {
  %3 = alloca ptr, align 8
  %4 = alloca i64, align 8
  store ptr %0, ptr %3, align 8
  store i64 %1, ptr %4, align 8
  %5 = load ptr, ptr %3, align 8
  %6 = getelementptr inbounds nuw %"struct.llvm::Align", ptr %5, i32 0, i32 0
  store i8 0, ptr %6, align 1
  %7 = load i64, ptr %4, align 8
  %8 = call noundef i32 @_ZN4llvm7Log2_64Em(i64 noundef %7)
  %9 = trunc i32 %8 to i8
  %10 = getelementptr inbounds nuw %"struct.llvm::Align", ptr %5, i32 0, i32 0
  store i8 %9, ptr %10, align 1
  ret void
}

; Function Attrs: mustprogress nounwind uwtable
define dso_local noundef i32 @_ZN4llvm16MachineFrameInfo17CreateFixedObjectEmlbb(ptr noundef nonnull align 8 dereferenceable(696) %0, i64 noundef %1, i64 noundef %2, i1 noundef zeroext %3, i1 noundef zeroext %4) #0 align 2 {
  %6 = alloca ptr, align 8
  %7 = alloca i64, align 8
  %8 = alloca i64, align 8
  %9 = alloca i8, align 1
  %10 = alloca i8, align 1
  %11 = alloca %"struct.llvm::Align", align 1
  %12 = alloca %"struct.llvm::Align", align 1
  %13 = alloca %"struct.llvm::Align", align 1
  %14 = alloca %"struct.llvm::Align", align 1
  %15 = alloca %"struct.llvm::Align", align 1
  %16 = alloca %"class.__gnu_cxx::__normal_iterator.5", align 8
  %17 = alloca %"class.__gnu_cxx::__normal_iterator", align 8
  %18 = alloca %"struct.llvm::MachineFrameInfo::StackObject", align 8
  %19 = alloca %"struct.llvm::Align", align 1
  %20 = alloca %"class.__gnu_cxx::__normal_iterator", align 8
  store ptr %0, ptr %6, align 8
  store i64 %1, ptr %7, align 8
  store i64 %2, ptr %8, align 8
  %21 = zext i1 %3 to i8
  store i8 %21, ptr %9, align 1
  %22 = zext i1 %4 to i8
  store i8 %22, ptr %10, align 1
  %23 = load ptr, ptr %6, align 8
  %24 = getelementptr inbounds nuw %"class.llvm::MachineFrameInfo", ptr %23, i32 0, i32 2
  %25 = load i8, ptr %24, align 2
  %26 = trunc i8 %25 to i1
  br i1 %26, label %27, label %28

27:                                               ; preds = %5
  call void @_ZN4llvm5AlignC2Em(ptr noundef nonnull align 1 dereferenceable(1) %12, i64 noundef 1)
  br label %30

28:                                               ; preds = %5
  %29 = getelementptr inbounds nuw %"class.llvm::MachineFrameInfo", ptr %23, i32 0, i32 0
  call void @llvm.memcpy.p0.p0.i64(ptr align 1 %12, ptr align 8 %29, i64 1, i1 false)
  br label %30

30:                                               ; preds = %28, %27
  %31 = load i64, ptr %8, align 8
  %32 = getelementptr inbounds nuw %"struct.llvm::Align", ptr %12, i32 0, i32 0
  %33 = load i8, ptr %32, align 1
  %34 = call i8 @_ZN4llvm15commonAlignmentENS_5AlignEm(i8 %33, i64 noundef %31)
  %35 = getelementptr inbounds nuw %"struct.llvm::Align", ptr %11, i32 0, i32 0
  store i8 %34, ptr %35, align 1
  %36 = getelementptr inbounds nuw %"class.llvm::MachineFrameInfo", ptr %23, i32 0, i32 1
  %37 = load i8, ptr %36, align 1
  %38 = trunc i8 %37 to i1
  %39 = xor i1 %38, true
  call void @llvm.memcpy.p0.p0.i64(ptr align 1 %14, ptr align 1 %11, i64 1, i1 false)
  %40 = getelementptr inbounds nuw %"class.llvm::MachineFrameInfo", ptr %23, i32 0, i32 0
  call void @llvm.memcpy.p0.p0.i64(ptr align 1 %15, ptr align 8 %40, i64 1, i1 false)
  %41 = getelementptr inbounds nuw %"struct.llvm::Align", ptr %14, i32 0, i32 0
  %42 = load i8, ptr %41, align 1
  %43 = getelementptr inbounds nuw %"struct.llvm::Align", ptr %15, i32 0, i32 0
  %44 = load i8, ptr %43, align 1
  %45 = call i8 @_ZL19clampStackAlignmentbN4llvm5AlignES0_(i1 noundef zeroext %39, i8 %42, i8 %44)
  %46 = getelementptr inbounds nuw %"struct.llvm::Align", ptr %13, i32 0, i32 0
  store i8 %45, ptr %46, align 1
  call void @llvm.memcpy.p0.p0.i64(ptr align 1 %11, ptr align 1 %13, i64 1, i1 false)
  %47 = getelementptr inbounds nuw %"class.llvm::MachineFrameInfo", ptr %23, i32 0, i32 3
  %48 = getelementptr inbounds nuw %"class.llvm::MachineFrameInfo", ptr %23, i32 0, i32 3
  %49 = call ptr @_ZNSt6vectorIN4llvm16MachineFrameInfo11StackObjectESaIS2_EE5beginEv(ptr noundef nonnull align 8 dereferenceable(24) %48) #9
  %50 = getelementptr inbounds nuw %"class.__gnu_cxx::__normal_iterator", ptr %17, i32 0, i32 0
  store ptr %49, ptr %50, align 8
  call void @_ZN9__gnu_cxx17__normal_iteratorIPKN4llvm16MachineFrameInfo11StackObjectESt6vectorIS3_SaIS3_EEEC2IPS3_vEERKNS0_IT_S8_EE(ptr noundef nonnull align 8 dereferenceable(8) %16, ptr noundef nonnull align 8 dereferenceable(8) %17) #9
  %51 = load i64, ptr %7, align 8
  call void @llvm.memcpy.p0.p0.i64(ptr align 1 %19, ptr align 1 %11, i64 1, i1 false)
  %52 = load i64, ptr %8, align 8
  %53 = load i8, ptr %9, align 1
  %54 = trunc i8 %53 to i1
  %55 = load i8, ptr %10, align 1
  %56 = trunc i8 %55 to i1
  %57 = getelementptr inbounds nuw %"struct.llvm::Align", ptr %19, i32 0, i32 0
  %58 = load i8, ptr %57, align 1
  call void @_ZN4llvm16MachineFrameInfo11StackObjectC2EmNS_5AlignElbbPKNS_10AllocaInstEbh(ptr noundef nonnull align 8 dereferenceable(37) %18, i64 noundef %51, i8 %58, i64 noundef %52, i1 noundef zeroext %54, i1 noundef zeroext false, ptr noundef null, i1 noundef zeroext %56, i8 noundef zeroext 0)
  %59 = getelementptr inbounds nuw %"class.__gnu_cxx::__normal_iterator.5", ptr %16, i32 0, i32 0
  %60 = load ptr, ptr %59, align 8
  %61 = call ptr @_ZNSt6vectorIN4llvm16MachineFrameInfo11StackObjectESaIS2_EE6insertEN9__gnu_cxx17__normal_iteratorIPKS2_S4_EEOS2_(ptr noundef nonnull align 8 dereferenceable(24) %47, ptr %60, ptr noundef nonnull align 8 dereferenceable(37) %18)
  %62 = getelementptr inbounds nuw %"class.__gnu_cxx::__normal_iterator", ptr %20, i32 0, i32 0
  store ptr %61, ptr %62, align 8
  %63 = getelementptr inbounds nuw %"class.llvm::MachineFrameInfo", ptr %23, i32 0, i32 4
  %64 = load i32, ptr %63, align 8
  %65 = add i32 %64, 1
  store i32 %65, ptr %63, align 8
  %66 = sub i32 0, %65
  ret i32 %66
}