; Function Attrs: mustprogress nounwind uwtable
define dso_local noundef i32 @_ZN4llvm16MachineFrameInfo17CreateFixedObjectEmlbb(ptr noundef nonnull align 8 dereferenceable(696) %0, i64 noundef %1, i64 noundef %2, i1 noundef zeroext %3, i1 noundef zeroext %4) local_unnamed_addr #2 align 2 {
  %6 = alloca %"struct.llvm::MachineFrameInfo::StackObject", align 8
  %7 = getelementptr inbounds nuw i8, ptr %0, i64 2
  %8 = load i8, ptr %7, align 2
  %9 = trunc i8 %8 to i1
  %10 = load i8, ptr %0, align 8
  %11 = zext nneg i8 %10 to i64
  %12 = shl nuw i64 1, %11
  %13 = select i1 %9, i64 1, i64 %12
  %14 = or i64 %13, %2
  %15 = sub i64 0, %14
  %16 = and i64 %14, %15
  %17 = tail call range(i64 0, 65) i64 @llvm.ctlz.i64(i64 %16, i1 false)
  %18 = trunc nuw nsw i64 %17 to i8
  %19 = sub nsw i8 63, %18
  %20 = getelementptr inbounds nuw i8, ptr %0, i64 1
  %21 = load i8, ptr %20, align 1
  %22 = trunc i8 %21 to i1
  %spec.select.i = tail call i8 @llvm.umin.i8(i8 %19, i8 %10)
  %.sroa.04.0.i = select i1 %22, i8 %19, i8 %spec.select.i
  %23 = getelementptr inbounds nuw i8, ptr %0, i64 8
  %24 = load ptr, ptr %23, align 8
  %25 = zext i1 %3 to i8
  %26 = zext i1 %4 to i8
  store i64 %2, ptr %6, align 8
  %27 = getelementptr inbounds nuw i8, ptr %6, i64 8
  store i64 %1, ptr %27, align 8
  %28 = getelementptr inbounds nuw i8, ptr %6, i64 16
  store i8 %.sroa.04.0.i, ptr %28, align 8
  %29 = getelementptr inbounds nuw i8, ptr %6, i64 17
  store i8 %25, ptr %29, align 1
  %30 = getelementptr inbounds nuw i8, ptr %6, i64 18
  store i8 0, ptr %30, align 2
  %31 = getelementptr inbounds nuw i8, ptr %6, i64 19
  store i8 0, ptr %31, align 1
  %32 = getelementptr inbounds nuw i8, ptr %6, i64 20
  store i8 0, ptr %32, align 4
  %33 = getelementptr inbounds nuw i8, ptr %6, i64 24
  store ptr null, ptr %33, align 8
  %34 = getelementptr inbounds nuw i8, ptr %6, i64 32
  store i8 0, ptr %34, align 8
  %35 = getelementptr inbounds nuw i8, ptr %6, i64 33
  store i8 %26, ptr %35, align 1
  %36 = getelementptr inbounds nuw i8, ptr %6, i64 34
  store i8 0, ptr %36, align 2
  %37 = getelementptr inbounds nuw i8, ptr %6, i64 35
  store i8 0, ptr %37, align 1
  %38 = getelementptr inbounds nuw i8, ptr %6, i64 36
  store i8 0, ptr %38, align 4
  %39 = call ptr @_ZNSt6vectorIN4llvm16MachineFrameInfo11StackObjectESaIS2_EE14_M_insert_rvalEN9__gnu_cxx17__normal_iteratorIPKS2_S4_EEOS2_(ptr noundef nonnull align 8 dereferenceable(24) %23, ptr %24, ptr noundef nonnull align 8 dereferenceable(37) %6)
  %40 = getelementptr inbounds nuw i8, ptr %0, i64 32
  %41 = load i32, ptr %40, align 8
  %42 = add i32 %41, 1
  store i32 %42, ptr %40, align 8
  %43 = xor i32 %41, -1
  ret i32 %43
}